(dp0
S'METTS MARK'
p1
(dp2
S'to_messages'
p3
I807
sS'deferral_payments'
p4
S'NaN'
p5
sS'bonus'
p6
I600000
sS'total_stock_value'
p7
I585062
sS'expenses'
p8
I94299
sS'from_poi_to_this_person'
p9
I38
sS'from_this_person_to_poi'
p10
I1
sS'poi'
p11
I00
sS'deferred_income'
p12
g5
sS'restricted_stock'
p13
I585062
sS'long_term_incentive'
p14
g5
sS'salary'
p15
I365788
sS'email_poi'
p16
I0
sS'total_payments'
p17
I1061827
sS'loan_advances'
p18
g5
sS'email_address'
p19
S'mark.metts@enron.com'
p20
sS'restricted_stock_deferred'
p21
g5
sS'shared_receipt_with_poi'
p22
I702
sS'exercised_stock_options'
p23
g5
sS'from_messages'
p24
I29
sS'other'
p25
I1740
sS'director_fees'
p26
g5
ssS'BAXTER JOHN C'
p27
(dp28
g3
g5
sg4
I1295738
sg6
I1200000
sg7
I10623258
sg8
I11200
sg9
g5
sg10
g5
sg11
I00
sg12
I-1386055
sg13
I3942714
sg14
I1586055
sg15
I267102
sg16
I-1
sg17
I5634343
sg18
g5
sg19
g5
sg21
g5
sg22
g5
sg23
I6680544
sg24
g5
sg25
I2660303
sg26
g5
ssS'ELLIOTT STEVEN'
p29
(dp30
g3
g5
sg4
g5
sg6
I350000
sg7
I6678735
sg8
I78552
sg9
g5
sg10
g5
sg11
I00
sg12
I-400729
sg13
I1788391
sg14
g5
sg15
I170941
sg16
I0
sg17
I211725
sg18
g5
sg19
S'steven.elliott@enron.com'
p31
sg21
g5
sg22
g5
sg23
I4890344
sg24
g5
sg25
I12961
sg26
g5
ssS'CORDES WILLIAM R'
p32
(dp33
g3
I764
sg4
g5
sg6
g5
sg7
I1038185
sg8
g5
sg9
I10
sg10
I0
sg11
I00
sg12
g5
sg13
I386335
sg14
g5
sg15
g5
sg16
I0
sg17
g5
sg18
g5
sg19
S'bill.cordes@enron.com'
p34
sg21
g5
sg22
I58
sg23
I651850
sg24
I12
sg25
g5
sg26
g5
ssS'HANNON KEVIN P'
p35
(dp36
g3
I1045
sg4
g5
sg6
I1500000
sg7
I6391065
sg8
I34039
sg9
I32
sg10
I21
sg11
I01
sg12
I-3117011
sg13
I853064
sg14
I1617011
sg15
I243293
sg16
I1
sg17
I288682
sg18
g5
sg19
S'kevin.hannon@enron.com'
p37
sg21
g5
sg22
I1035
sg23
I5538001
sg24
I32
sg25
I11350
sg26
g5
ssS'MORDAUNT KRISTINA M'
p38
(dp39
g3
g5
sg4
g5
sg6
I325000
sg7
I208510
sg8
I35018
sg9
g5
sg10
g5
sg11
I00
sg12
g5
sg13
I208510
sg14
g5
sg15
I267093
sg16
I0
sg17
I628522
sg18
g5
sg19
S'kristina.mordaunt@enron.com'
p40
sg21
g5
sg22
g5
sg23
g5
sg24
g5
sg25
I1411
sg26
g5
ssS'MEYER ROCKFORD G'
p41
(dp42
g3
I232
sg4
I1848227
sg6
g5
sg7
I955873
sg8
g5
sg9
I0
sg10
I0
sg11
I00
sg12
g5
sg13
I462384
sg14
g5
sg15
g5
sg16
I0
sg17
I1848227
sg18
g5
sg19
S'rockford.meyer@enron.com'
p43
sg21
g5
sg22
I22
sg23
I493489
sg24
I28
sg25
g5
sg26
g5
ssS'MCMAHON JEFFREY'
p44
(dp45
g3
I2355
sg4
g5
sg6
I2600000
sg7
I1662855
sg8
I137108
sg9
I58
sg10
I26
sg11
I00
sg12
g5
sg13
I558801
sg14
I694862
sg15
I370448
sg16
I0
sg17
I4099771
sg18
g5
sg19
S'jeffrey.mcmahon@enron.com'
p46
sg21
g5
sg22
I2228
sg23
I1104054
sg24
I48
sg25
I297353
sg26
g5
ssS'HORTON STANLEY C'
p47
(dp48
g3
I2350
sg4
I3131860
sg6
g5
sg7
I7256648
sg8
g5
sg9
I44
sg10
I15
sg11
I00
sg12
g5
sg13
I2046079
sg14
g5
sg15
g5
sg16
I0
sg17
I3131860
sg18
g5
sg19
S'stanley.horton@enron.com'
p49
sg21
g5
sg22
I1074
sg23
I5210569
sg24
I1073
sg25
g5
sg26
g5
ssS'PIPER GREGORY F'
p50
(dp51
g3
I1238
sg4
I1130036
sg6
I400000
sg7
I880290
sg8
I43057
sg9
I61
sg10
I48
sg11
I00
sg12
I-33333
sg13
I409554
sg14
g5
sg15
I197091
sg16
I0
sg17
I1737629
sg18
g5
sg19
S'greg.piper@enron.com'
p52
sg21
I-409554
sg22
I742
sg23
I880290
sg24
I222
sg25
I778
sg26
g5
ssS'HUMPHREY GENE E'
p53
(dp54
g3
I128
sg4
I2964506
sg6
g5
sg7
I2282768
sg8
I4994
sg9
I10
sg10
I17
sg11
I00
sg12
g5
sg13
g5
sg14
g5
sg15
I130724
sg16
I0
sg17
I3100224
sg18
g5
sg19
S'gene.humphrey@enron.com'
p55
sg21
g5
sg22
I119
sg23
I2282768
sg24
I17
sg25
g5
sg26
g5
ssS'UMANOFF ADAM S'
p56
(dp57
g3
I111
sg4
g5
sg6
I788750
sg7
g5
sg8
I53122
sg9
I12
sg10
I0
sg11
I00
sg12
g5
sg13
g5
sg14
g5
sg15
I288589
sg16
I0
sg17
I1130461
sg18
g5
sg19
S'adam.umanoff@enron.com'
p58
sg21
g5
sg22
I41
sg23
g5
sg24
I18
sg25
g5
sg26
g5
ssS'BLACHMAN JEREMY M'
p59
(dp60
g3
I2475
sg4
g5
sg6
I850000
sg7
I954354
sg8
I84208
sg9
I25
sg10
I2
sg11
I00
sg12
g5
sg13
I189041
sg14
I831809
sg15
I248546
sg16
I0
sg17
I2014835
sg18
g5
sg19
S'jeremy.blachman@enron.com'
p61
sg21
g5
sg22
I2326
sg23
I765313
sg24
I14
sg25
I272
sg26
g5
ssS'SUNDE MARTIN'
p62
(dp63
g3
I2647
sg4
g5
sg6
I700000
sg7
I698920
sg8
g5
sg9
I37
sg10
I13
sg11
I00
sg12
g5
sg13
I698920
sg14
I476451
sg15
I257486
sg16
I1
sg17
I1545059
sg18
g5
sg19
S'marty.sunde@enron.com'
p64
sg21
g5
sg22
I2565
sg23
g5
sg24
I38
sg25
I111122
sg26
g5
ssS'GIBBS DANA R'
p65
(dp66
g3
I169
sg4
I504610
sg6
g5
sg7
I2218275
sg8
g5
sg9
I0
sg10
I0
sg11
I00
sg12
g5
sg13
g5
sg14
I461912
sg15
g5
sg16
I0
sg17
I966522
sg18
g5
sg19
S'dana.gibbs@enron.com'
p67
sg21
g5
sg22
I23
sg23
I2218275
sg24
I12
sg25
g5
sg26
g5
ssS'LOWRY CHARLES P'
p68
(dp69
g3
g5
sg4
g5
sg6
g5
sg7
I372205
sg8
g5
sg9
g5
sg10
g5
sg11
I00
sg12
g5
sg13
I153686
sg14
g5
sg15
g5
sg16
I-1
sg17
g5
sg18
g5
sg19
g5
sg21
I-153686
sg22
g5
sg23
I372205
sg24
g5
sg25
g5
sg26
g5
ssS'COLWELL WESLEY'
p70
(dp71
g3
I1758
sg4
I27610
sg6
I1200000
sg7
I698242
sg8
I16514
sg9
I240
sg10
I11
sg11
I01
sg12
I-144062
sg13
I698242
sg14
g5
sg15
I288542
sg16
I1
sg17
I1490344
sg18
g5
sg19
S'wes.colwell@enron.com'
p72
sg21
g5
sg22
I1132
sg23
g5
sg24
I40
sg25
I101740
sg26
g5
ssS'MULLER MARK S'
p73
(dp74
g3
I136
sg4
I842924
sg6
I1100000
sg7
I1416848
sg8
g5
sg9
I12
sg10
I0
sg11
I00
sg12
I-719000
sg13
I360528
sg14
I1725545
sg15
I251654
sg16
I0
sg17
I3202070
sg18
g5
sg19
S's..muller@enron.com'
p75
sg21
g5
sg22
I114
sg23
I1056320
sg24
I16
sg25
I947
sg26
g5
ssS'JACKSON CHARLENE R'
p76
(dp77
g3
I258
sg4
g5
sg6
I250000
sg7
I725735
sg8
I10181
sg9
I25
sg10
I19
sg11
I00
sg12
g5
sg13
I540672
sg14
g5
sg15
I288558
sg16
I0
sg17
I551174
sg18
g5
sg19
S'charlene.jackson@enron.com'
p78
sg21
g5
sg22
I117
sg23
I185063
sg24
I56
sg25
I2435
sg26
g5
ssS'WESTFAHL RICHARD K'
p79
(dp80
g3
g5
sg4
g5
sg6
g5
sg7
I384930
sg8
I51870
sg9
g5
sg10
g5
sg11
I00
sg12
I-10800
sg13
I384930
sg14
I256191
sg15
I63744
sg16
I0
sg17
I762135
sg18
g5
sg19
S'dick.westfahl@enron.com'
p81
sg21
g5
sg22
g5
sg23
g5
sg24
g5
sg25
I401130
sg26
g5
ssS'WALTERS GARETH W'
p82
(dp83
g3
g5
sg4
I53625
sg6
g5
sg7
I1030329
sg8
I33785
sg9
g5
sg10
g5
sg11
I00
sg12
g5
sg13
g5
sg14
g5
sg15
g5
sg16
I-1
sg17
I87410
sg18
g5
sg19
g5
sg21
g5
sg22
g5
sg23
I1030329
sg24
g5
sg25
g5
sg26
g5
ssS'WALLS JR ROBERT H'
p84
(dp85
g3
I671
sg4
g5
sg6
I850000
sg7
I5898997
sg8
I50936
sg9
I17
sg10
I0
sg11
I00
sg12
g5
sg13
I1552453
sg14
I540751
sg15
I357091
sg16
I0
sg17
I1798780
sg18
g5
sg19
S'rob.walls@enron.com'
p86
sg21
g5
sg22
I215
sg23
I4346544
sg24
I146
sg25
I2
sg26
g5
ssS'KITCHEN LOUISE'
p87
(dp88
g3
I8305
sg4
g5
sg6
I3100000
sg7
I547143
sg8
I5774
sg9
I251
sg10
I194
sg11
I00
sg12
g5
sg13
I466101
sg14
g5
sg15
I271442
sg16
I0
sg17
I3471141
sg18
g5
sg19
S'louise.kitchen@enron.com'
p89
sg21
g5
sg22
I3669
sg23
I81042
sg24
I1728
sg25
I93925
sg26
g5
ssS'CHAN RONNIE'
p90
(dp91
g3
g5
sg4
g5
sg6
g5
sg7
g5
sg8
g5
sg9
g5
sg10
g5
sg11
I00
sg12
I-98784
sg13
I32460
sg14
g5
sg15
g5
sg16
I-1
sg17
g5
sg18
g5
sg19
g5
sg21
I-32460
sg22
g5
sg23
g5
sg24
g5
sg25
g5
sg26
I98784
ssS'BELFER ROBERT'
p92
(dp93
g3
g5
sg4
I-102500
sg6
g5
sg7
I-44093
sg8
g5
sg9
g5
sg10
g5
sg11
I00
sg12
g5
sg13
g5
sg14
g5
sg15
g5
sg16
I-1
sg17
I102500
sg18
g5
sg19
g5
sg21
I44093
sg22
g5
sg23
I3285
sg24
g5
sg25
g5
sg26
I3285
ssS'SHANKMAN JEFFREY A'
p94
(dp95
g3
I3221
sg4
g5
sg6
I2000000
sg7
I2072035
sg8
I178979
sg9
I94
sg10
I83
sg11
I00
sg12
g5
sg13
I630137
sg14
I554422
sg15
I304110
sg16
I0
sg17
I3038702
sg18
g5
sg19
S'jeffrey.shankman@enron.com'
p96
sg21
g5
sg22
I1730
sg23
I1441898
sg24
I2681
sg25
I1191
sg26
g5
ssS'WODRASKA JOHN'
p97
(dp98
g3
g5
sg4
g5
sg6
g5
sg7
g5
sg8
g5
sg9
g5
sg10
g5
sg11
I00
sg12
g5
sg13
g5
sg14
g5
sg15
g5
sg16
I0
sg17
I189583
sg18
g5
sg19
S'john.wodraska@enron.com'
p99
sg21
g5
sg22
g5
sg23
g5
sg24
g5
sg25
I189583
sg26
g5
ssS'BERGSIEKER RICHARD P'
p100
(dp101
g3
I383
sg4
g5
sg6
I250000
sg7
I659249
sg8
I59175
sg9
I4
sg10
I0
sg11
I00
sg12
I-485813
sg13
I659249
sg14
I180250
sg15
I187922
sg16
I0
sg17
I618850
sg18
g5
sg19
S'rick.bergsieker@enron.com'
p102
sg21
g5
sg22
I233
sg23
g5
sg24
I59
sg25
I427316
sg26
g5
ssS'URQUHART JOHN A'
p103
(dp104
g3
g5
sg4
g5
sg6
g5
sg7
g5
sg8
I228656
sg9
g5
sg10
g5
sg11
I00
sg12
I-36666
sg13
g5
sg14
g5
sg15
g5
sg16
I-1
sg17
I228656
sg18
g5
sg19
g5
sg21
g5
sg22
g5
sg23
g5
sg24
g5
sg25
g5
sg26
I36666
ssS'BIBI PHILIPPE A'
p105
(dp106
g3
I1607
sg4
g5
sg6
I1000000
sg7
I1843816
sg8
I38559
sg9
I23
sg10
I8
sg11
I00
sg12
g5
sg13
I378082
sg14
I369721
sg15
I213625
sg16
I0
sg17
I2047593
sg18
g5
sg19
S'philippe.bibi@enron.com'
p107
sg21
g5
sg22
I1336
sg23
I1465734
sg24
I40
sg25
I425688
sg26
g5
ssS'RIEKER PAULA H'
p108
(dp109
g3
I1328
sg4
I214678
sg6
I700000
sg7
I1918887
sg8
I33271
sg9
I35
sg10
I48
sg11
I01
sg12
I-100000
sg13
I283649
sg14
g5
sg15
I249201
sg16
I1
sg17
I1099100
sg18
g5
sg19
S'paula.rieker@enron.com'
p110
sg21
g5
sg22
I1258
sg23
I1635238
sg24
I82
sg25
I1950
sg26
g5
ssS'WHALEY DAVID A'
p111
(dp112
g3
g5
sg4
g5
sg6
g5
sg7
I98718
sg8
g5
sg9
g5
sg10
g5
sg11
I00
sg12
g5
sg13
g5
sg14
g5
sg15
g5
sg16
I-1
sg17
g5
sg18
g5
sg19
g5
sg21
g5
sg22
g5
sg23
I98718
sg24
g5
sg25
g5
sg26
g5
ssS'BECK SALLY W'
p113
(dp114
g3
I7315
sg4
g5
sg6
I700000
sg7
I126027
sg8
I37172
sg9
I144
sg10
I386
sg11
I00
sg12
g5
sg13
I126027
sg14
g5
sg15
I231330
sg16
I0
sg17
I969068
sg18
g5
sg19
S'sally.beck@enron.com'
p115
sg21
g5
sg22
I2639
sg23
g5
sg24
I4343
sg25
I566
sg26
g5
ssS'HAUG DAVID L'
p116
(dp117
g3
I573
sg4
g5
sg6
g5
sg7
I2217299
sg8
I475
sg9
I4
sg10
I7
sg11
I00
sg12
g5
sg13
I2217299
sg14
g5
sg15
g5
sg16
I0
sg17
I475
sg18
g5
sg19
S'david.haug@enron.com'
p118
sg21
g5
sg22
I471
sg23
g5
sg24
I19
sg25
g5
sg26
g5
ssS'ECHOLS JOHN B'
p119
(dp120
g3
g5
sg4
g5
sg6
I200000
sg7
I1008941
sg8
I21530
sg9
g5
sg10
g5
sg11
I00
sg12
g5
sg13
I407503
sg14
I2234774
sg15
I182245
sg16
I0
sg17
I2692324
sg18
g5
sg19
S'john.echols@enron.com'
p121
sg21
g5
sg22
g5
sg23
I601438
sg24
g5
sg25
I53775
sg26
g5
ssS'MENDELSOHN JOHN'
p122
(dp123
g3
g5
sg4
g5
sg6
g5
sg7
g5
sg8
I148
sg9
g5
sg10
g5
sg11
I00
sg12
I-103750
sg13
g5
sg14
g5
sg15
g5
sg16
I-1
sg17
I148
sg18
g5
sg19
g5
sg21
g5
sg22
g5
sg23
g5
sg24
g5
sg25
g5
sg26
I103750
ssS'HICKERSON GARY J'
p124
(dp125
g3
I1320
sg4
g5
sg6
I1700000
sg7
I441096
sg8
I98849
sg9
I40
sg10
I1
sg11
I00
sg12
g5
sg13
I441096
sg14
I69223
sg15
I211788
sg16
I0
sg17
I2081796
sg18
g5
sg19
S'gary.hickerson@enron.com'
p126
sg21
g5
sg22
I900
sg23
g5
sg24
I27
sg25
I1936
sg26
g5
ssS'CLINE KENNETH W'
p127
(dp128
g3
g5
sg4
g5
sg6
g5
sg7
I189518
sg8
g5
sg9
g5
sg10
g5
sg11
I00
sg12
g5
sg13
I662086
sg14
g5
sg15
g5
sg16
I-1
sg17
g5
sg18
g5
sg19
g5
sg21
I-472568
sg22
g5
sg23
g5
sg24
g5
sg25
g5
sg26
g5
ssS'LEWIS RICHARD'
p129
(dp130
g3
I952
sg4
g5
sg6
g5
sg7
I850477
sg8
g5
sg9
I10
sg10
I0
sg11
I00
sg12
g5
sg13
g5
sg14
g5
sg15
g5
sg16
I0
sg17
g5
sg18
g5
sg19
S'richard.lewis@enron.com'
p131
sg21
g5
sg22
I739
sg23
I850477
sg24
I26
sg25
g5
sg26
g5
ssS'HAYES ROBERT E'
p132
(dp133
g3
I504
sg4
I7961
sg6
g5
sg7
I151418
sg8
g5
sg9
I16
sg10
I0
sg11
I00
sg12
g5
sg13
I151418
sg14
g5
sg15
g5
sg16
I0
sg17
I7961
sg18
g5
sg19
S'robert.hayes@enron.com'
p134
sg21
g5
sg22
I50
sg23
g5
sg24
I12
sg25
g5
sg26
g5
ssS'MCCARTY DANNY J'
p135
(dp136
g3
I1433
sg4
g5
sg6
g5
sg7
I758931
sg8
g5
sg9
I25
sg10
I2
sg11
I00
sg12
g5
sg13
I94556
sg14
g5
sg15
g5
sg16
I0
sg17
g5
sg18
g5
sg19
S'danny.mccarty@enron.com'
p137
sg21
g5
sg22
I508
sg23
I664375
sg24
I215
sg25
g5
sg26
g5
ssS'KOPPER MICHAEL J'
p138
(dp139
g3
g5
sg4
g5
sg6
I800000
sg7
I985032
sg8
I118134
sg9
g5
sg10
g5
sg11
I01
sg12
g5
sg13
I985032
sg14
I602671
sg15
I224305
sg16
I0
sg17
I2652612
sg18
g5
sg19
S'michael.kopper@enron.com'
p140
sg21
g5
sg22
g5
sg23
g5
sg24
g5
sg25
I907502
sg26
g5
ssS'LEFF DANIEL P'
p141
(dp142
g3
I2822
sg4
g5
sg6
I1000000
sg7
I360528
sg8
g5
sg9
I67
sg10
I14
sg11
I00
sg12
g5
sg13
I360528
sg14
I1387399
sg15
I273746
sg16
I0
sg17
I2664228
sg18
g5
sg19
S'dan.leff@enron.com'
p143
sg21
g5
sg22
I2672
sg23
g5
sg24
I63
sg25
I3083
sg26
g5
ssS'LAVORATO JOHN J'
p144
(dp145
g3
I7259
sg4
g5
sg6
I8000000
sg7
I5167144
sg8
I49537
sg9
I528
sg10
I411
sg11
I00
sg12
g5
sg13
I1008149
sg14
I2035380
sg15
I339288
sg16
I1
sg17
I10425757
sg18
g5
sg19
S'john.lavorato@enron.com'
p146
sg21
g5
sg22
I3962
sg23
I4158995
sg24
I2585
sg25
I1552
sg26
g5
ssS'BERBERIAN DAVID'
p147
(dp148
g3
g5
sg4
g5
sg6
g5
sg7
I2493616
sg8
I11892
sg9
g5
sg10
g5
sg11
I00
sg12
g5
sg13
I869220
sg14
g5
sg15
I216582
sg16
I0
sg17
I228474
sg18
g5
sg19
S'david.berberian@enron.com'
p149
sg21
g5
sg22
g5
sg23
I1624396
sg24
g5
sg25
g5
sg26
g5
ssS'DETMERING TIMOTHY J'
p150
(dp151
g3
g5
sg4
I875307
sg6
I425000
sg7
I2027865
sg8
I52255
sg9
g5
sg10
g5
sg11
I00
sg12
I-775241
sg13
I315068
sg14
I415657
sg15
I210500
sg16
I0
sg17
I1204583
sg18
g5
sg19
S'timothy.detmering@enron.com'
p152
sg21
I-315068
sg22
g5
sg23
I2027865
sg24
g5
sg25
I1105
sg26
g5
ssS'WAKEHAM JOHN'
p153
(dp154
g3
g5
sg4
g5
sg6
g5
sg7
g5
sg8
I103773
sg9
g5
sg10
g5
sg11
I00
sg12
g5
sg13
g5
sg14
g5
sg15
g5
sg16
I-1
sg17
I213071
sg18
g5
sg19
g5
sg21
g5
sg22
g5
sg23
g5
sg24
g5
sg25
g5
sg26
I109298
ssS'POWERS WILLIAM'
p155
(dp156
g3
I653
sg4
g5
sg6
g5
sg7
g5
sg8
g5
sg9
I0
sg10
I0
sg11
I00
sg12
I-17500
sg13
g5
sg14
g5
sg15
g5
sg16
I0
sg17
g5
sg18
g5
sg19
S'ken.powers@enron.com'
p157
sg21
g5
sg22
I12
sg23
g5
sg24
I26
sg25
g5
sg26
I17500
ssS'GOLD JOSEPH'
p158
(dp159
g3
g5
sg4
g5
sg6
I750000
sg7
I877611
sg8
g5
sg9
g5
sg10
g5
sg11
I00
sg12
g5
sg13
I441096
sg14
I304805
sg15
I272880
sg16
I0
sg17
I2146973
sg18
g5
sg19
S'joe.gold@enron.com'
p160
sg21
g5
sg22
g5
sg23
I436515
sg24
g5
sg25
I819288
sg26
g5
ssS'BANNANTINE JAMES M'
p161
(dp162
g3
I566
sg4
g5
sg6
g5
sg7
I5243487
sg8
I56301
sg9
I39
sg10
I0
sg11
I00
sg12
I-5104
sg13
I1757552
sg14
g5
sg15
I477
sg16
I0
sg17
I916197
sg18
g5
sg19
S'james.bannantine@enron.com'
p163
sg21
I-560222
sg22
I465
sg23
I4046157
sg24
I29
sg25
I864523
sg26
g5
ssS'DUNCAN JOHN H'
p164
(dp165
g3
g5
sg4
g5
sg6
g5
sg7
I371750
sg8
g5
sg9
g5
sg10
g5
sg11
I00
sg12
I-25000
sg13
g5
sg14
g5
sg15
g5
sg16
I-1
sg17
I77492
sg18
g5
sg19
g5
sg21
g5
sg22
g5
sg23
I371750
sg24
g5
sg25
g5
sg26
I102492
ssS'SHAPIRO RICHARD S'
p166
(dp167
g3
I15149
sg4
g5
sg6
I650000
sg7
I987001
sg8
I137767
sg9
I74
sg10
I65
sg11
I00
sg12
g5
sg13
I379164
sg14
g5
sg15
I269076
sg16
I0
sg17
I1057548
sg18
g5
sg19
S'richard.shapiro@enron.com'
p168
sg21
g5
sg22
I4527
sg23
I607837
sg24
I1215
sg25
I705
sg26
g5
ssS'SHERRIFF JOHN R'
p169
(dp170
g3
I3187
sg4
g5
sg6
I1500000
sg7
I3128982
sg8
g5
sg9
I28
sg10
I23
sg11
I00
sg12
g5
sg13
I1293424
sg14
I554422
sg15
I428780
sg16
I0
sg17
I4335388
sg18
g5
sg19
S'john.sherriff@enron.com'
p171
sg21
g5
sg22
I2103
sg23
I1835558
sg24
I92
sg25
I1852186
sg26
g5
ssS'SHELBY REX'
p172
(dp173
g3
I225
sg4
g5
sg6
I200000
sg7
I2493616
sg8
I22884
sg9
I13
sg10
I14
sg11
I01
sg12
I-4167
sg13
I869220
sg14
g5
sg15
I211844
sg16
I1
sg17
I2003885
sg18
g5
sg19
S'rex.shelby@enron.com'
p174
sg21
g5
sg22
I91
sg23
I1624396
sg24
I39
sg25
I1573324
sg26
g5
ssS'LEMAISTRE CHARLES'
p175
(dp176
g3
g5
sg4
g5
sg6
g5
sg7
I412878
sg8
g5
sg9
g5
sg10
g5
sg11
I00
sg12
I-25000
sg13
g5
sg14
g5
sg15
g5
sg16
I-1
sg17
I87492
sg18
g5
sg19
g5
sg21
g5
sg22
g5
sg23
I412878
sg24
g5
sg25
g5
sg26
I112492
ssS'DEFFNER JOSEPH M'
p177
(dp178
g3
I714
sg4
g5
sg6
I600000
sg7
I159211
sg8
I41626
sg9
I115
sg10
I4
sg11
I00
sg12
g5
sg13
I141833
sg14
I335349
sg15
I206121
sg16
I0
sg17
I1208649
sg18
g5
sg19
S'joseph.deffner@enron.com'
p179
sg21
g5
sg22
I552
sg23
I17378
sg24
I74
sg25
I25553
sg26
g5
ssS'KISHKILL JOSEPH G'
p180
(dp181
g3
g5
sg4
g5
sg6
g5
sg7
I1034346
sg8
I116335
sg9
g5
sg10
g5
sg11
I00
sg12
I-51042
sg13
I1034346
sg14
g5
sg15
I174246
sg16
I0
sg17
I704896
sg18
g5
sg19
S'joe.kishkill@enron.com'
p182
sg21
g5
sg22
g5
sg23
g5
sg24
g5
sg25
I465357
sg26
g5
ssS'WHALLEY LAWRENCE G'
p183
(dp184
g3
I6019
sg4
g5
sg6
I3000000
sg7
I6079137
sg8
I57838
sg9
I186
sg10
I24
sg11
I00
sg12
g5
sg13
I2796177
sg14
I808346
sg15
I510364
sg16
I0
sg17
I4677574
sg18
g5
sg19
S'greg.whalley@enron.com'
p185
sg21
g5
sg22
I3920
sg23
I3282960
sg24
I556
sg25
I301026
sg26
g5
ssS'MCCONNELL MICHAEL S'
p186
(dp187
g3
I3329
sg4
g5
sg6
I1100000
sg7
I3101279
sg8
I81364
sg9
I92
sg10
I194
sg11
I00
sg12
g5
sg13
I1478269
sg14
I554422
sg15
I365038
sg16
I0
sg17
I2101364
sg18
g5
sg19
S'mike.mcconnell@enron.com'
p188
sg21
g5
sg22
I2189
sg23
I1623010
sg24
I2742
sg25
I540
sg26
g5
ssS'PIRO JIM'
p189
(dp190
g3
I58
sg4
g5
sg6
g5
sg7
I47304
sg8
g5
sg9
I0
sg10
I1
sg11
I00
sg12
g5
sg13
I47304
sg14
g5
sg15
g5
sg16
I0
sg17
g5
sg18
g5
sg19
S'jim.piro@enron.com'
p191
sg21
g5
sg22
I3
sg23
g5
sg24
I16
sg25
g5
sg26
g5
ssS'DELAINEY DAVID W'
p192
(dp193
g3
I3093
sg4
g5
sg6
I3000000
sg7
I3614261
sg8
I86174
sg9
I66
sg10
I609
sg11
I01
sg12
g5
sg13
I1323148
sg14
I1294981
sg15
I365163
sg16
I0
sg17
I4747979
sg18
g5
sg19
S'david.delainey@enron.com'
p194
sg21
g5
sg22
I2097
sg23
I2291113
sg24
I3069
sg25
I1661
sg26
g5
ssS'SULLIVAN-SHAKLOVITZ COLLEEN'
p195
(dp196
g3
g5
sg4
I181993
sg6
I100000
sg7
I1362375
sg8
g5
sg9
g5
sg10
g5
sg11
I00
sg12
g5
sg13
g5
sg14
I554422
sg15
I162779
sg16
I-1
sg17
I999356
sg18
g5
sg19
g5
sg21
g5
sg22
g5
sg23
I1362375
sg24
g5
sg25
I162
sg26
g5
ssS'WROBEL BRUCE'
p197
(dp198
g3
g5
sg4
g5
sg6
g5
sg7
I139130
sg8
g5
sg9
g5
sg10
g5
sg11
I00
sg12
g5
sg13
g5
sg14
g5
sg15
g5
sg16
I-1
sg17
g5
sg18
g5
sg19
g5
sg21
g5
sg22
g5
sg23
I139130
sg24
g5
sg25
g5
sg26
g5
ssS'LINDHOLM TOD A'
p199
(dp200
g3
g5
sg4
I204075
sg6
I200000
sg7
I3064208
sg8
I57727
sg9
g5
sg10
g5
sg11
I00
sg12
g5
sg13
I514847
sg14
I175000
sg15
I236457
sg16
I0
sg17
I875889
sg18
g5
sg19
S'tod.lindholm@enron.com'
p201
sg21
g5
sg22
g5
sg23
I2549361
sg24
g5
sg25
I2630
sg26
g5
ssS'MEYER JEROME J'
p202
(dp203
g3
g5
sg4
g5
sg6
g5
sg7
g5
sg8
I2151
sg9
g5
sg10
g5
sg11
I00
sg12
I-38346
sg13
g5
sg14
g5
sg15
g5
sg16
I-1
sg17
I2151
sg18
g5
sg19
g5
sg21
g5
sg22
g5
sg23
g5
sg24
g5
sg25
g5
sg26
I38346
ssS'LAY KENNETH L'
p204
(dp205
g3
I4273
sg4
I202911
sg6
I7000000
sg7
I49110078
sg8
I99832
sg9
I123
sg10
I16
sg11
I01
sg12
I-300000
sg13
I14761694
sg14
I3600000
sg15
I1072321
sg16
I1
sg17
I103559793
sg18
I81525000
sg19
S'kenneth.lay@enron.com'
p206
sg21
g5
sg22
I2411
sg23
I34348384
sg24
I36
sg25
I10359729
sg26
g5
ssS'BUTTS ROBERT H'
p207
(dp208
g3
g5
sg4
g5
sg6
I750000
sg7
I417619
sg8
I9410
sg9
g5
sg10
g5
sg11
I00
sg12
I-75000
sg13
I417619
sg14
I175000
sg15
I261516
sg16
I0
sg17
I1271582
sg18
g5
sg19
S'bob.butts@enron.com'
p209
sg21
g5
sg22
g5
sg23
g5
sg24
g5
sg25
I150656
sg26
g5
ssS'OLSON CINDY K'
p210
(dp211
g3
I1184
sg4
I77716
sg6
I750000
sg7
I2606763
sg8
I63791
sg9
I20
sg10
I15
sg11
I00
sg12
g5
sg13
I969729
sg14
I100000
sg15
I329078
sg16
I0
sg17
I1321557
sg18
g5
sg19
S'cindy.olson@enron.com'
p212
sg21
g5
sg22
I856
sg23
I1637034
sg24
I52
sg25
I972
sg26
g5
ssS'MCDONALD REBECCA'
p213
(dp214
g3
I894
sg4
g5
sg6
g5
sg7
I1691366
sg8
g5
sg9
I54
sg10
I1
sg11
I00
sg12
g5
sg13
I934065
sg14
g5
sg15
g5
sg16
I0
sg17
g5
sg18
g5
sg19
S'rebecca.mcdonald@enron.com'
p215
sg21
g5
sg22
I720
sg23
I757301
sg24
I13
sg25
g5
sg26
g5
ssS'CUMBERLAND MICHAEL S'
p216
(dp217
g3
g5
sg4
g5
sg6
I325000
sg7
I207940
sg8
I22344
sg9
g5
sg10
g5
sg11
I00
sg12
g5
sg13
I207940
sg14
I275000
sg15
I184899
sg16
I-1
sg17
I807956
sg18
g5
sg19
g5
sg21
g5
sg22
g5
sg23
g5
sg24
g5
sg25
I713
sg26
g5
ssS'GAHN ROBERT S'
p218
(dp219
g3
g5
sg4
I73122
sg6
I509870
sg7
I318607
sg8
I50080
sg9
g5
sg10
g5
sg11
I00
sg12
I-1042
sg13
I235370
sg14
g5
sg15
I192008
sg16
I-1
sg17
I900585
sg18
g5
sg19
g5
sg21
g5
sg22
g5
sg23
I83237
sg24
g5
sg25
I76547
sg26
g5
ssS'MCCLELLAN GEORGE'
p220
(dp221
g3
I1744
sg4
g5
sg6
I900000
sg7
I947861
sg8
I228763
sg9
I52
sg10
I0
sg11
I00
sg12
I-125000
sg13
I441096
sg14
g5
sg15
I263413
sg16
I0
sg17
I1318763
sg18
g5
sg19
S'george.mcclellan@enron.com'
p222
sg21
g5
sg22
I1469
sg23
I506765
sg24
I49
sg25
I51587
sg26
g5
ssS'HERMANN ROBERT J'
p223
(dp224
g3
g5
sg4
g5
sg6
I700000
sg7
I668132
sg8
I48357
sg9
g5
sg10
g5
sg11
I00
sg12
I-280000
sg13
I480632
sg14
I150000
sg15
I262663
sg16
I0
sg17
I1297461
sg18
g5
sg19
S'robert.hermann@enron.com'
p225
sg21
g5
sg22
g5
sg23
I187500
sg24
g5
sg25
I416441
sg26
g5
ssS'SCRIMSHAW MATTHEW'
p226
(dp227
g3
g5
sg4
g5
sg6
g5
sg7
I759557
sg8
g5
sg9
g5
sg10
g5
sg11
I00
sg12
g5
sg13
g5
sg14
g5
sg15
g5
sg16
I0
sg17
g5
sg18
g5
sg19
S'matthew.scrimshaw@enron.com'
p228
sg21
g5
sg22
g5
sg23
I759557
sg24
g5
sg25
g5
sg26
g5
ssS'GATHMANN WILLIAM D'
p229
(dp230
g3
g5
sg4
g5
sg6
g5
sg7
I1945360
sg8
g5
sg9
g5
sg10
g5
sg11
I00
sg12
g5
sg13
I264013
sg14
g5
sg15
g5
sg16
I-1
sg17
g5
sg18
g5
sg19
g5
sg21
I-72419
sg22
g5
sg23
I1753766
sg24
g5
sg25
g5
sg26
g5
ssS'HAEDICKE MARK E'
p231
(dp232
g3
I4009
sg4
I2157527
sg6
I1150000
sg7
I803094
sg8
I76169
sg9
I180
sg10
I61
sg11
I00
sg12
I-934484
sg13
I524169
sg14
I983346
sg15
I374125
sg16
I0
sg17
I3859065
sg18
g5
sg19
S'mark.haedicke@enron.com'
p233
sg21
I-329825
sg22
I1847
sg23
I608750
sg24
I1941
sg25
I52382
sg26
g5
ssS'BOWEN JR RAYMOND M'
p234
(dp235
g3
I1858
sg4
g5
sg6
I1350000
sg7
I252055
sg8
I65907
sg9
I140
sg10
I15
sg11
I01
sg12
I-833
sg13
I252055
sg14
I974293
sg15
I278601
sg16
I1
sg17
I2669589
sg18
g5
sg19
S'raymond.bowen@enron.com'
p236
sg21
g5
sg22
I1593
sg23
g5
sg24
I27
sg25
I1621
sg26
g5
ssS'GILLIS JOHN'
p237
(dp238
g3
g5
sg4
g5
sg6
g5
sg7
I85641
sg8
g5
sg9
g5
sg10
g5
sg11
I00
sg12
g5
sg13
I75838
sg14
g5
sg15
g5
sg16
I-1
sg17
g5
sg18
g5
sg19
g5
sg21
g5
sg22
g5
sg23
I9803
sg24
g5
sg25
g5
sg26
g5
ssS'FITZGERALD JAY L'
p239
(dp240
g3
I936
sg4
g5
sg6
I350000
sg7
I1621236
sg8
I23870
sg9
I1
sg10
I8
sg11
I00
sg12
g5
sg13
I956775
sg14
I556416
sg15
I199157
sg16
I0
sg17
I1414857
sg18
g5
sg19
S'jay.fitzgerald@enron.com'
p241
sg21
g5
sg22
I723
sg23
I664461
sg24
I16
sg25
I285414
sg26
g5
ssS'MORAN MICHAEL P'
p242
(dp243
g3
I672
sg4
g5
sg6
g5
sg7
I221141
sg8
g5
sg9
I0
sg10
I0
sg11
I00
sg12
g5
sg13
I161602
sg14
g5
sg15
g5
sg16
I0
sg17
g5
sg18
g5
sg19
S'michael.moran@enron.com'
p244
sg21
g5
sg22
I127
sg23
I59539
sg24
I19
sg25
g5
sg26
g5
ssS'REDMOND BRIAN L'
p245
(dp246
g3
I1671
sg4
g5
sg6
g5
sg7
I7890324
sg8
I14689
sg9
I204
sg10
I49
sg11
I00
sg12
g5
sg13
I381285
sg14
g5
sg15
I96840
sg16
I0
sg17
I111529
sg18
g5
sg19
S'brian.redmond@enron.com'
p247
sg21
g5
sg22
I1063
sg23
I7509039
sg24
I221
sg25
g5
sg26
g5
ssS'BAZELIDES PHILIP J'
p248
(dp249
g3
g5
sg4
I684694
sg6
g5
sg7
I1599641
sg8
g5
sg9
g5
sg10
g5
sg11
I00
sg12
g5
sg13
g5
sg14
I93750
sg15
I80818
sg16
I-1
sg17
I860136
sg18
g5
sg19
g5
sg21
g5
sg22
g5
sg23
I1599641
sg24
g5
sg25
I874
sg26
g5
ssS'BELDEN TIMOTHY N'
p250
(dp251
g3
I7991
sg4
I2144013
sg6
I5249999
sg7
I1110705
sg8
I17355
sg9
I228
sg10
I108
sg11
I01
sg12
I-2334434
sg13
I157569
sg14
g5
sg15
I213999
sg16
I1
sg17
I5501630
sg18
g5
sg19
S'tim.belden@enron.com'
p252
sg21
g5
sg22
I5521
sg23
I953136
sg24
I484
sg25
I210698
sg26
g5
ssS'DURAN WILLIAM D'
p253
(dp254
g3
I904
sg4
g5
sg6
I750000
sg7
I1640910
sg8
I25785
sg9
I106
sg10
I3
sg11
I00
sg12
g5
sg13
I189041
sg14
I1105218
sg15
I210692
sg16
I0
sg17
I2093263
sg18
g5
sg19
S'w.duran@enron.com'
p255
sg21
g5
sg22
I599
sg23
I1451869
sg24
I12
sg25
I1568
sg26
g5
ssS'THORN TERENCE H'
p256
(dp257
g3
I266
sg4
I16586
sg6
g5
sg7
I4817796
sg8
I46145
sg9
I0
sg10
I0
sg11
I00
sg12
g5
sg13
I365320
sg14
I200000
sg15
I222093
sg16
I0
sg17
I911453
sg18
g5
sg19
S'terence.thorn@enron.com'
p258
sg21
g5
sg22
I73
sg23
I4452476
sg24
I41
sg25
I426629
sg26
g5
ssS'FASTOW ANDREW S'
p259
(dp260
g3
g5
sg4
g5
sg6
I1300000
sg7
I1794412
sg8
I55921
sg9
g5
sg10
g5
sg11
I01
sg12
I-1386055
sg13
I1794412
sg14
I1736055
sg15
I440698
sg16
I0
sg17
I2424083
sg18
g5
sg19
S'andrew.fastow@enron.com'
p261
sg21
g5
sg22
g5
sg23
g5
sg24
g5
sg25
I277464
sg26
g5
ssS'FOY JOE'
p262
(dp263
g3
I57
sg4
I181755
sg6
g5
sg7
I343434
sg8
g5
sg9
I0
sg10
I0
sg11
I00
sg12
g5
sg13
g5
sg14
g5
sg15
g5
sg16
I0
sg17
I181755
sg18
g5
sg19
S'tracy.foy@enron.com'
p264
sg21
g5
sg22
I2
sg23
I343434
sg24
I13
sg25
g5
sg26
g5
ssS'CALGER CHRISTOPHER F'
p265
(dp266
g3
I2598
sg4
g5
sg6
I1250000
sg7
I126027
sg8
I35818
sg9
I199
sg10
I25
sg11
I01
sg12
I-262500
sg13
I126027
sg14
I375304
sg15
I240189
sg16
I1
sg17
I1639297
sg18
g5
sg19
S'christopher.calger@enron.com'
p267
sg21
g5
sg22
I2188
sg23
g5
sg24
I144
sg25
I486
sg26
g5
ssS'RICE KENNETH D'
p268
(dp269
g3
I905
sg4
g5
sg6
I1750000
sg7
I22542539
sg8
I46950
sg9
I42
sg10
I4
sg11
I01
sg12
I-3504386
sg13
I2748364
sg14
I1617011
sg15
I420636
sg16
I1
sg17
I505050
sg18
g5
sg19
S'ken.rice@enron.com'
p270
sg21
g5
sg22
I864
sg23
I19794175
sg24
I18
sg25
I174839
sg26
g5
ssS'KAMINSKI WINCENTY J'
p271
(dp272
g3
I4607
sg4
g5
sg6
I400000
sg7
I976037
sg8
I83585
sg9
I41
sg10
I171
sg11
I00
sg12
g5
sg13
I126027
sg14
I323466
sg15
I275101
sg16
I0
sg17
I1086821
sg18
g5
sg19
S'vince.kaminski@enron.com'
p273
sg21
g5
sg22
I583
sg23
I850010
sg24
I14368
sg25
I4669
sg26
g5
ssS'LOCKHART EUGENE E'
p274
(dp275
g3
g5
sg4
g5
sg6
g5
sg7
g5
sg8
g5
sg9
g5
sg10
g5
sg11
I00
sg12
g5
sg13
g5
sg14
g5
sg15
g5
sg16
I-1
sg17
g5
sg18
g5
sg19
g5
sg21
g5
sg22
g5
sg23
g5
sg24
g5
sg25
g5
sg26
g5
ssS'COX DAVID'
p276
(dp277
g3
I102
sg4
g5
sg6
I800000
sg7
I495633
sg8
I27861
sg9
I0
sg10
I4
sg11
I00
sg12
I-41250
sg13
I378082
sg14
g5
sg15
I314288
sg16
I0
sg17
I1101393
sg18
g5
sg19
S'chip.cox@enron.com'
p278
sg21
g5
sg22
I71
sg23
I117551
sg24
I33
sg25
I494
sg26
g5
ssS'OVERDYKE JR JERE C'
p279
(dp280
g3
g5
sg4
g5
sg6
g5
sg7
I7307594
sg8
I18834
sg9
g5
sg10
g5
sg11
I00
sg12
g5
sg13
I2041016
sg14
I135836
sg15
I94941
sg16
I0
sg17
I249787
sg18
g5
sg19
S'jere.overdyke@enron.com'
p281
sg21
g5
sg22
g5
sg23
I5266578
sg24
g5
sg25
I176
sg26
g5
ssS'PEREIRA PAULO V. FERRAZ'
p282
(dp283
g3
g5
sg4
g5
sg6
g5
sg7
g5
sg8
I27942
sg9
g5
sg10
g5
sg11
I00
sg12
I-101250
sg13
g5
sg14
g5
sg15
g5
sg16
I-1
sg17
I27942
sg18
g5
sg19
g5
sg21
g5
sg22
g5
sg23
g5
sg24
g5
sg25
g5
sg26
I101250
ssS'STABLER FRANK'
p284
(dp285
g3
g5
sg4
g5
sg6
I500000
sg7
I511734
sg8
I16514
sg9
g5
sg10
g5
sg11
I00
sg12
g5
sg13
I511734
sg14
g5
sg15
I239502
sg16
I0
sg17
I1112087
sg18
g5
sg19
S'frank.stabler@enron.com'
p286
sg21
g5
sg22
g5
sg23
g5
sg24
g5
sg25
I356071
sg26
g5
ssS'SKILLING JEFFREY K'
p287
(dp288
g3
I3627
sg4
g5
sg6
I5600000
sg7
I26093672
sg8
I29336
sg9
I88
sg10
I30
sg11
I01
sg12
g5
sg13
I6843672
sg14
I1920000
sg15
I1111258
sg16
I1
sg17
I8682716
sg18
g5
sg19
S'jeff.skilling@enron.com'
p289
sg21
g5
sg22
I2042
sg23
I19250000
sg24
I108
sg25
I22122
sg26
g5
ssS'BLAKE JR. NORMAN P'
p290
(dp291
g3
g5
sg4
g5
sg6
g5
sg7
g5
sg8
I1279
sg9
g5
sg10
g5
sg11
I00
sg12
I-113784
sg13
g5
sg14
g5
sg15
g5
sg16
I-1
sg17
I1279
sg18
g5
sg19
g5
sg21
g5
sg22
g5
sg23
g5
sg24
g5
sg25
g5
sg26
I113784
ssS'SHERRICK JEFFREY B'
p292
(dp293
g3
I613
sg4
g5
sg6
g5
sg7
I1832468
sg8
g5
sg9
I39
sg10
I18
sg11
I00
sg12
g5
sg13
I405999
sg14
g5
sg15
g5
sg16
I0
sg17
g5
sg18
g5
sg19
S'jeffrey.sherrick@enron.com'
p294
sg21
g5
sg22
I583
sg23
I1426469
sg24
I25
sg25
g5
sg26
g5
ssS'PRENTICE JAMES'
p295
(dp296
g3
g5
sg4
I564348
sg6
g5
sg7
I1095040
sg8
g5
sg9
g5
sg10
g5
sg11
I00
sg12
g5
sg13
I208809
sg14
g5
sg15
g5
sg16
I0
sg17
I564348
sg18
g5
sg19
S'james.prentice@enron.com'
p297
sg21
g5
sg22
g5
sg23
I886231
sg24
g5
sg25
g5
sg26
g5
ssS'GRAY RODNEY'
p298
(dp299
g3
g5
sg4
I93585
sg6
g5
sg7
g5
sg8
g5
sg9
g5
sg10
g5
sg11
I00
sg12
g5
sg13
g5
sg14
I365625
sg15
I6615
sg16
I-1
sg17
I1146658
sg18
g5
sg19
g5
sg21
g5
sg22
g5
sg23
g5
sg24
g5
sg25
I680833
sg26
g5
ssS'PICKERING MARK R'
p300
(dp301
g3
I898
sg4
g5
sg6
I300000
sg7
I28798
sg8
I31653
sg9
I7
sg10
I0
sg11
I00
sg12
g5
sg13
g5
sg14
g5
sg15
I655037
sg16
I0
sg17
I1386690
sg18
I400000
sg19
S'mark.pickering@enron.com'
p302
sg21
g5
sg22
I728
sg23
I28798
sg24
I67
sg25
g5
sg26
g5
ssS'THE TRAVEL AGENCY IN THE PARK'
p303
(dp304
g3
g5
sg4
g5
sg6
g5
sg7
g5
sg8
g5
sg9
g5
sg10
g5
sg11
I00
sg12
g5
sg13
g5
sg14
g5
sg15
g5
sg16
I-1
sg17
I362096
sg18
g5
sg19
g5
sg21
g5
sg22
g5
sg23
g5
sg24
g5
sg25
I362096
sg26
g5
ssS'NOLES JAMES L'
p305
(dp306
g3
g5
sg4
I774401
sg6
g5
sg7
I368705
sg8
g5
sg9
g5
sg10
g5
sg11
I00
sg12
g5
sg13
I463261
sg14
g5
sg15
g5
sg16
I-1
sg17
I774401
sg18
g5
sg19
g5
sg21
I-94556
sg22
g5
sg23
g5
sg24
g5
sg25
g5
sg26
g5
ssS'KEAN STEVEN J'
p307
(dp308
g3
I12754
sg4
g5
sg6
I1000000
sg7
I6153642
sg8
I41953
sg9
I140
sg10
I387
sg11
I00
sg12
g5
sg13
I4131594
sg14
I300000
sg15
I404338
sg16
I0
sg17
I1747522
sg18
g5
sg19
S'steven.kean@enron.com'
p309
sg21
g5
sg22
I3639
sg23
I2022048
sg24
I6759
sg25
I1231
sg26
g5
ssS'TOTAL'
p310
(dp311
g3
g5
sg4
I32083396
sg6
I97343619
sg7
I434509511
sg8
I5235198
sg9
g5
sg10
g5
sg11
I00
sg12
I-27992891
sg13
I130322299
sg14
I48521928
sg15
I26704229
sg16
I-1
sg17
I309886585
sg18
I83925000
sg19
g5
sg21
I-7576788
sg22
g5
sg23
I311764000
sg24
g5
sg25
I42667589
sg26
I1398517
ssS'FOWLER PEGGY'
p312
(dp313
g3
I517
sg4
g5
sg6
g5
sg7
I1884748
sg8
g5
sg9
I0
sg10
I0
sg11
I00
sg12
g5
sg13
I560170
sg14
g5
sg15
g5
sg16
I0
sg17
g5
sg18
g5
sg19
S'kulvinder.fowler@enron.com'
p314
sg21
g5
sg22
I10
sg23
I1324578
sg24
I36
sg25
g5
sg26
g5
ssS'WASAFF GEORGE'
p315
(dp316
g3
I400
sg4
I831299
sg6
I325000
sg7
I2056427
sg8
g5
sg9
I22
sg10
I7
sg11
I00
sg12
I-583325
sg13
I388167
sg14
I200000
sg15
I259996
sg16
I1
sg17
I1034395
sg18
g5
sg19
S'george.wasaff@enron.com'
p317
sg21
g5
sg22
I337
sg23
I1668260
sg24
I30
sg25
I1425
sg26
g5
ssS'WHITE JR THOMAS E'
p318
(dp319
g3
g5
sg4
g5
sg6
I450000
sg7
I15144123
sg8
I81353
sg9
g5
sg10
g5
sg11
I00
sg12
g5
sg13
I13847074
sg14
g5
sg15
I317543
sg16
I0
sg17
I1934359
sg18
g5
sg19
S'thomas.white@enron.com'
p320
sg21
g5
sg22
g5
sg23
I1297049
sg24
g5
sg25
I1085463
sg26
g5
ssS'CHRISTODOULOU DIOMEDES'
p321
(dp322
g3
g5
sg4
g5
sg6
g5
sg7
I6077885
sg8
g5
sg9
g5
sg10
g5
sg11
I00
sg12
g5
sg13
I950730
sg14
g5
sg15
g5
sg16
I0
sg17
g5
sg18
g5
sg19
S'diomedes.christodoulou@enron.com'
p323
sg21
g5
sg22
g5
sg23
I5127155
sg24
g5
sg25
g5
sg26
g5
ssS'ALLEN PHILLIP K'
p324
(dp325
g3
I2902
sg4
I2869717
sg6
I4175000
sg7
I1729541
sg8
I13868
sg9
I47
sg10
I65
sg11
I00
sg12
I-3081055
sg13
I126027
sg14
I304805
sg15
I201955
sg16
I0
sg17
I4484442
sg18
g5
sg19
S'phillip.allen@enron.com'
p326
sg21
I-126027
sg22
I1407
sg23
I1729541
sg24
I2195
sg25
I152
sg26
g5
ssS'SHARP VICTORIA T'
p327
(dp328
g3
I3136
sg4
I187469
sg6
I600000
sg7
I494136
sg8
I116337
sg9
I24
sg10
I6
sg11
I00
sg12
g5
sg13
I213063
sg14
I422158
sg15
I248146
sg16
I0
sg17
I1576511
sg18
g5
sg19
S'vicki.sharp@enron.com'
p329
sg21
g5
sg22
I2477
sg23
I281073
sg24
I136
sg25
I2401
sg26
g5
ssS'JAEDICKE ROBERT'
p330
(dp331
g3
g5
sg4
g5
sg6
g5
sg7
I431750
sg8
g5
sg9
g5
sg10
g5
sg11
I00
sg12
I-25000
sg13
I44093
sg14
g5
sg15
g5
sg16
I-1
sg17
I83750
sg18
g5
sg19
g5
sg21
I-44093
sg22
g5
sg23
I431750
sg24
g5
sg25
g5
sg26
I108750
ssS'WINOKUR JR. HERBERT S'
p332
(dp333
g3
g5
sg4
g5
sg6
g5
sg7
g5
sg8
I1413
sg9
g5
sg10
g5
sg11
I00
sg12
I-25000
sg13
g5
sg14
g5
sg15
g5
sg16
I-1
sg17
I84992
sg18
g5
sg19
g5
sg21
g5
sg22
g5
sg23
g5
sg24
g5
sg25
g5
sg26
I108579
ssS'BROWN MICHAEL'
p334
(dp335
g3
I1486
sg4
g5
sg6
g5
sg7
g5
sg8
I49288
sg9
I13
sg10
I1
sg11
I00
sg12
g5
sg13
g5
sg14
g5
sg15
g5
sg16
I0
sg17
I49288
sg18
g5
sg19
S'michael.brown@enron.com'
p336
sg21
g5
sg22
I761
sg23
g5
sg24
I41
sg25
g5
sg26
g5
ssS'BADUM JAMES P'
p337
(dp338
g3
g5
sg4
I178980
sg6
g5
sg7
I257817
sg8
I3486
sg9
g5
sg10
g5
sg11
I00
sg12
g5
sg13
g5
sg14
g5
sg15
g5
sg16
I-1
sg17
I182466
sg18
g5
sg19
g5
sg21
g5
sg22
g5
sg23
I257817
sg24
g5
sg25
g5
sg26
g5
ssS'HUGHES JAMES A'
p339
(dp340
g3
I719
sg4
g5
sg6
g5
sg7
I1118394
sg8
g5
sg9
I35
sg10
I5
sg11
I00
sg12
g5
sg13
I363428
sg14
g5
sg15
g5
sg16
I0
sg17
g5
sg18
g5
sg19
S'james.hughes@enron.com'
p341
sg21
g5
sg22
I589
sg23
I754966
sg24
I34
sg25
g5
sg26
g5
ssS'REYNOLDS LAWRENCE'
p342
(dp343
g3
g5
sg4
I51365
sg6
I100000
sg7
I4221891
sg8
I8409
sg9
g5
sg10
g5
sg11
I00
sg12
I-200000
sg13
I201483
sg14
I156250
sg15
I76399
sg16
I-1
sg17
I394475
sg18
g5
sg19
g5
sg21
I-140264
sg22
g5
sg23
I4160672
sg24
g5
sg25
I202052
sg26
g5
ssS'DIMICHELE RICHARD G'
p344
(dp345
g3
g5
sg4
g5
sg6
I1000000
sg7
I8317782
sg8
I35812
sg9
g5
sg10
g5
sg11
I00
sg12
g5
sg13
I126027
sg14
I694862
sg15
I262788
sg16
I0
sg17
I2368151
sg18
g5
sg19
S'richard.dimichele@enron.com'
p346
sg21
g5
sg22
g5
sg23
I8191755
sg24
g5
sg25
I374689
sg26
g5
ssS'BHATNAGAR SANJAY'
p347
(dp348
g3
I523
sg4
g5
sg6
g5
sS'total_stock_value'
p349
S'NaN'
p350
sg8
g5
sg9
I0
sg10
I1
sg11
I00
sg12
g5
sg13
I-2604490
sg14
g5
sg15
g5
sg16
I0
sg17
I15456290
sg18
g5
sg19
S'sanjay.bhatnagar@enron.com'
p351
sg21
I15456290
sg22
I463
sg23
I2604490
sg24
I29
sg25
I137864
sg26
I137864
ssS'CARTER REBECCA C'
p352
(dp353
g3
I312
sg4
g5
sg6
I300000
sg7
g5
sg8
g5
sg9
I29
sg10
I7
sg11
I00
sg12
I-159792
sg13
I307301
sg14
I75000
sg15
I261809
sg16
I0
sg17
I477557
sg18
g5
sg19
S'rebecca.carter@enron.com'
p354
sg21
I-307301
sg22
I196
sg23
g5
sg24
I15
sg25
I540
sg26
g5
ssS'BUCHANAN HAROLD G'
p355
(dp356
g3
I1088
sg4
g5
sg6
I500000
sg7
I1014505
sg8
I600
sg9
I0
sg10
I0
sg11
I00
sg12
g5
sg13
I189041
sg14
I304805
sg15
I248017
sg16
I0
sg17
I1054637
sg18
g5
sg19
S'john.buchanan@enron.com'
p357
sg21
g5
sg22
I23
sg23
I825464
sg24
I125
sg25
I1215
sg26
g5
ssS'YEAP SOON'
p358
(dp359
g3
g5
sg4
g5
sg6
g5
sg7
I192758
sg8
I55097
sg9
g5
sg10
g5
sg11
I00
sg12
g5
sg13
g5
sg14
g5
sg15
g5
sg16
I-1
sg17
I55097
sg18
g5
sg19
g5
sg21
g5
sg22
g5
sg23
I192758
sg24
g5
sg25
g5
sg26
g5
ssS'MURRAY JULIA H'
p360
(dp361
g3
I2192
sg4
g5
sg6
I400000
sg7
I597461
sg8
I57580
sg9
I11
sg10
I2
sg11
I00
sg12
g5
sg13
I196983
sg14
I125000
sg15
I229284
sg16
I0
sg17
I812194
sg18
g5
sg19
S'julia.murray@enron.com'
p362
sg21
g5
sg22
I395
sg23
I400478
sg24
I45
sg25
I330
sg26
g5
ssS'GARLAND C KEVIN'
p363
(dp364
g3
I209
sg4
g5
sg6
I850000
sg7
I896153
sg8
I48405
sg9
I10
sg10
I27
sg11
I00
sg12
g5
sg13
I259907
sg14
I375304
sg15
I231946
sg16
I0
sg17
I1566469
sg18
g5
sg19
S'kevin.garland@enron.com'
p365
sg21
g5
sg22
I178
sg23
I636246
sg24
I44
sg25
I60814
sg26
g5
ssS'DODSON KEITH'
p366
(dp367
g3
I176
sg4
g5
sg6
I70000
sg7
g5
sg8
I28164
sg9
I10
sg10
I3
sg11
I00
sg12
g5
sg13
g5
sg14
g5
sg15
I221003
sg16
I0
sg17
I319941
sg18
g5
sg19
S'keith.dodson@enron.com'
p368
sg21
g5
sg22
I114
sg23
g5
sg24
I14
sg25
I774
sg26
g5
ssS'YEAGER F SCOTT'
p369
(dp370
g3
g5
sg4
g5
sg6
g5
sg7
I11884758
sg8
I53947
sg9
g5
sg10
g5
sg11
I01
sg12
g5
sg13
I3576206
sg14
g5
sg15
I158403
sg16
I0
sg17
I360300
sg18
g5
sg19
S'scott.yeager@enron.com'
p371
sg21
g5
sg22
g5
sg23
I8308552
sg24
g5
sg25
I147950
sg26
g5
ssS'HIRKO JOSEPH'
p372
(dp373
g3
g5
sg4
I10259
sg6
g5
sg7
I30766064
sg8
I77978
sg9
g5
sg10
g5
sg11
I01
sg12
g5
sg13
g5
sg14
g5
sg15
g5
sg16
I0
sg17
I91093
sg18
g5
sg19
S'joe.hirko@enron.com'
p374
sg21
g5
sg22
g5
sg23
I30766064
sg24
g5
sg25
I2856
sg26
g5
ssS'DIETRICH JANET R'
p375
(dp376
g3
I2572
sg4
g5
sg6
I600000
sg7
I1865087
sg8
I3475
sg9
I305
sg10
I14
sg11
I00
sg12
g5
sg13
I315068
sg14
I556416
sg15
I250100
sg16
I0
sg17
I1410464
sg18
g5
sg19
S'janet.dietrich@enron.com'
p377
sg21
g5
sg22
I1902
sg23
I1550019
sg24
I63
sg25
I473
sg26
g5
ssS'DERRICK JR. JAMES V'
p378
(dp379
g3
I2181
sg4
g5
sg6
I800000
sg7
I8831913
sg8
I51124
sg9
I64
sg10
I20
sg11
I00
sg12
I-1284000
sg13
I1787380
sg14
I484000
sg15
I492375
sg16
I0
sg17
I550981
sg18
g5
sg19
S'james.derrick@enron.com'
p380
sg21
I-1787380
sg22
I1401
sg23
I8831913
sg24
I909
sg25
I7482
sg26
g5
ssS'FREVERT MARK A'
p381
(dp382
g3
I3275
sg4
I6426990
sg6
I2000000
sg7
I14622185
sg8
I86987
sg9
I242
sg10
I6
sg11
I00
sg12
I-3367011
sg13
I4188667
sg14
I1617011
sg15
I1060932
sg16
I1
sg17
I17252530
sg18
I2000000
sg19
S'mark.frevert@enron.com'
p383
sg21
g5
sg22
I2979
sg23
I10433518
sg24
I21
sg25
I7427621
sg26
g5
ssS'PAI LOU L'
p384
(dp385
g3
g5
sg4
g5
sg6
I1000000
sg7
I23817930
sg8
I32047
sg9
g5
sg10
g5
sg11
I00
sg12
g5
sg13
I8453763
sg14
g5
sg15
I261879
sg16
I0
sg17
I3123383
sg18
g5
sg19
S'lou.pai@enron.com'
p386
sg21
g5
sg22
g5
sg23
I15364167
sg24
g5
sg25
I1829457
sg26
g5
ssS'BAY FRANKLIN R'
p387
(dp388
g3
g5
sg4
I260455
sg6
I400000
sg7
I63014
sg8
I129142
sg9
g5
sg10
g5
sg11
I00
sg12
I-201641
sg13
I145796
sg14
g5
sg15
I239671
sg16
I0
sg17
I827696
sg18
g5
sg19
S'frank.bay@enron.com'
p389
sg21
I-82782
sg22
g5
sg23
g5
sg24
g5
sg25
I69
sg26
g5
ssS'HAYSLETT RODERICK J'
p390
(dp391
g3
I2649
sg4
g5
sg6
g5
sg7
I346663
sg8
g5
sg9
I35
sg10
I38
sg11
I00
sg12
g5
sg13
I346663
sg14
g5
sg15
g5
sg16
I0
sg17
g5
sg18
g5
sg19
S'rod.hayslett@enron.com'
p392
sg21
g5
sg22
I571
sg23
g5
sg24
I1061
sg25
g5
sg26
g5
ssS'FUGH JOHN L'
p393
(dp394
g3
g5
sg4
I50591
sg6
g5
sg7
I176378
sg8
g5
sg9
g5
sg10
g5
sg11
I00
sg12
g5
sg13
g5
sg14
g5
sg15
g5
sg16
I-1
sg17
I50591
sg18
g5
sg19
g5
sg21
g5
sg22
g5
sg23
I176378
sg24
g5
sg25
g5
sg26
g5
ssS'FALLON JAMES B'
p395
(dp396
g3
I1755
sg4
g5
sg6
I2500000
sg7
I2332399
sg8
I95924
sg9
I42
sg10
I37
sg11
I00
sg12
g5
sg13
I1392142
sg14
I374347
sg15
I304588
sg16
I0
sg17
I3676340
sg18
g5
sg19
S'jim.fallon@enron.com'
p397
sg21
g5
sg22
I1604
sg23
I940257
sg24
I75
sg25
I401481
sg26
g5
ssS'KOENIG MARK E'
p398
(dp399
g3
I2374
sg4
g5
sg6
I700000
sg7
I1920055
sg8
I127017
sg9
I53
sg10
I15
sg11
I01
sg12
g5
sg13
I1248318
sg14
I300000
sg15
I309946
sg16
I1
sg17
I1587421
sg18
g5
sg19
S'mark.koenig@enron.com'
p400
sg21
g5
sg22
I2271
sg23
I671737
sg24
I61
sg25
I150458
sg26
g5
ssS'SAVAGE FRANK'
p401
(dp402
g3
g5
sg4
g5
sg6
g5
sg7
g5
sg8
g5
sg9
g5
sg10
g5
sg11
I00
sg12
I-121284
sg13
g5
sg14
g5
sg15
g5
sg16
I-1
sg17
I3750
sg18
g5
sg19
g5
sg21
g5
sg22
g5
sg23
g5
sg24
g5
sg25
g5
sg26
I125034
ssS'IZZO LAWRENCE L'
p403
(dp404
g3
I496
sg4
g5
sg6
g5
sg7
I5819980
sg8
I28093
sg9
I28
sg10
I5
sg11
I00
sg12
g5
sg13
I3654808
sg14
I312500
sg15
I85274
sg16
I0
sg17
I1979596
sg18
g5
sg19
S'larry.izzo@enron.com'
p405
sg21
g5
sg22
I437
sg23
I2165172
sg24
I19
sg25
I1553729
sg26
g5
ssS'TILNEY ELIZABETH A'
p406
(dp407
g3
I460
sg4
g5
sg6
I300000
sg7
I1168042
sg8
g5
sg9
I10
sg10
I11
sg11
I00
sg12
I-575000
sg13
I576792
sg14
I275000
sg15
I247338
sg16
I0
sg17
I399393
sg18
g5
sg19
S'elizabeth.tilney@enron.com'
p408
sg21
g5
sg22
I379
sg23
I591250
sg24
I19
sg25
I152055
sg26
g5
ssS'MARTIN AMANDA K'
p409
(dp410
g3
I1522
sg4
I85430
sg6
g5
sg7
I2070306
sg8
I8211
sg9
I8
sg10
I0
sg11
I00
sg12
g5
sg13
g5
sg14
I5145434
sg15
I349487
sg16
I0
sg17
I8407016
sg18
g5
sg19
S'a..martin@enron.com'
p411
sg21
g5
sg22
I477
sg23
I2070306
sg24
I230
sg25
I2818454
sg26
g5
ssS'BUY RICHARD B'
p412
(dp413
g3
I3523
sg4
I649584
sg6
I900000
sg7
I3444470
sg8
g5
sg9
I156
sg10
I71
sg11
I00
sg12
I-694862
sg13
I901657
sg14
I769862
sg15
I330546
sg16
I0
sg17
I2355702
sg18
g5
sg19
S'rick.buy@enron.com'
p414
sg21
g5
sg22
I2333
sg23
I2542813
sg24
I1053
sg25
I400572
sg26
g5
ssS'GRAMM WENDY L'
p415
(dp416
g3
g5
sg4
g5
sg6
g5
sg7
g5
sg8
g5
sg9
g5
sg10
g5
sg11
I00
sg12
g5
sg13
g5
sg14
g5
sg15
g5
sg16
I-1
sg17
I119292
sg18
g5
sg19
g5
sg21
g5
sg22
g5
sg23
g5
sg24
g5
sg25
g5
sg26
I119292
ssS'CAUSEY RICHARD A'
p417
(dp418
g3
I1892
sg4
g5
sg6
I1000000
sg7
I2502063
sg8
I30674
sg9
I58
sg10
I12
sg11
I01
sg12
I-235000
sg13
I2502063
sg14
I350000
sg15
I415189
sg16
I1
sg17
I1868758
sg18
g5
sg19
S'richard.causey@enron.com'
p419
sg21
g5
sg22
I1585
sg23
g5
sg24
I49
sg25
I307895
sg26
g5
ssS'TAYLOR MITCHELL S'
p420
(dp421
g3
I533
sg4
I227449
sg6
I600000
sg7
I3745048
sg8
g5
sg9
I0
sg10
I0
sg11
I00
sg12
g5
sg13
I563798
sg14
g5
sg15
I265214
sg16
I0
sg17
I1092663
sg18
g5
sg19
S'mitchell.taylor@enron.com'
p422
sg21
g5
sg22
I300
sg23
I3181250
sg24
I29
sg25
g5
sg26
g5
ssS'DONAHUE JR JEFFREY M'
p423
(dp424
g3
I865
sg4
g5
sg6
I800000
sg7
I1080988
sg8
I96268
sg9
I188
sg10
I11
sg11
I00
sg12
I-300000
sg13
I315068
sg14
g5
sg15
I278601
sg16
I0
sg17
I875760
sg18
g5
sg19
S'jeff.donahue@enron.com'
p425
sg21
g5
sg22
I772
sg23
I765920
sg24
I22
sg25
I891
sg26
g5
ssS'GLISAN JR BEN F'
p426
(dp427
g3
I873
sg4
g5
sg6
I600000
sg7
I778546
sg8
I125978
sg9
I52
sg10
I6
sg11
I01
sg12
g5
sg13
I393818
sg14
I71023
sg15
I274975
sg16
I1
sg17
I1272284
sg18
g5
sg19
S'ben.glisan@enron.com'
p428
sg21
g5
sg22
I874
sg23
I384728
sg24
I16
sg25
I200308
sg26
g5
ss.